target datalayout = "e-m:e-p270:32:32-p271:32:32-p272:64:64-i64:64-i128:128-f80:128-n8:16:32:64-S128"
target triple = "x86_64-pc-linux-gnu"

@.str = private unnamed_addr constant [8 x i8] c"<UNSET>\00", align 1
@.str.4 = private unnamed_addr constant [17 x i8] c"Outside of Cycle\00", align 1
@.str.5 = private unnamed_addr constant [5 x i8] c"Mark\00", align 1
@.str.6 = private unnamed_addr constant [11 x i8] c"Evacuation\00", align 1
@.str.7 = private unnamed_addr constant [18 x i8] c"Update References\00", align 1
@g_assert_poison = external global ptr, align 8
@.str.8 = private unnamed_addr constant [49 x i8] c"src/hotspot/share/gc/shenandoah/shenandoahGC.cpp\00", align 1
@.str.9 = private unnamed_addr constant [6 x i8] c"ERROR\00", align 1

; Function Attrs: mustprogress nounwind uwtable
define hidden noundef ptr @_ZN12ShenandoahGC21degen_point_to_stringENS_20ShenandoahDegenPointE(i32 noundef %0) #1 align 2 {
  %2 = alloca ptr, align 8
  %3 = alloca i32, align 4
  store i32 %0, ptr %3, align 4
  %4 = load i32, ptr %3, align 4
  switch i32 %4, label %10 [
    i32 0, label %5
    i32 1, label %6
    i32 2, label %7
    i32 3, label %8
    i32 4, label %9
  ]

5:                                                ; preds = %1
  store ptr @.str, ptr %2, align 8
  br label %14

6:                                                ; preds = %1
  store ptr @.str.4, ptr %2, align 8
  br label %14

7:                                                ; preds = %1
  store ptr @.str.5, ptr %2, align 8
  br label %14

8:                                                ; preds = %1
  store ptr @.str.6, ptr %2, align 8
  br label %14

9:                                                ; preds = %1
  store ptr @.str.7, ptr %2, align 8
  br label %14

10:                                               ; preds = %1
  br label %11

11:                                               ; preds = %10
  %12 = load ptr, ptr @g_assert_poison, align 8
  store i8 88, ptr %12, align 1
  call void @_Z28report_should_not_reach_herePKci(ptr noundef @.str.8, i32 noundef 49) #8
  unreachable

13:                                               ; No predecessors!
  store ptr @.str.9, ptr %2, align 8
  br label %14

14:                                               ; preds = %13, %9, %8, %7, %6, %5
  %15 = load ptr, ptr %2, align 8
  ret ptr %15
}