; Function Attrs: mustprogress nounwind uwtable
define hidden noundef nonnull ptr @_ZN12ShenandoahGC21degen_point_to_stringENS_20ShenandoahDegenPointE(i32 noundef %0) local_unnamed_addr #0 align 2 {
  %2 = icmp ult i32 %0, 5
  br i1 %2, label %switch.lookup, label %3

3:                                                ; preds = %1
  %4 = load ptr, ptr @g_assert_poison, align 8
  store i8 88, ptr %4, align 1
  tail call void @_Z28report_should_not_reach_herePKci(ptr noundef nonnull @.str.8, i32 noundef 49) #9
  unreachable

switch.lookup:                                    ; preds = %1
  %5 = zext nneg i32 %0 to i64
  %switch.gep = getelementptr inbounds [5 x ptr], ptr @switch.table._ZN12ShenandoahGC21degen_point_to_stringENS_20ShenandoahDegenPointE, i64 0, i64 %5
  %switch.load = load ptr, ptr %switch.gep, align 8
  ret ptr %switch.load
}